target datalayout = "e-m:e-p270:32:32-p271:32:32-p272:64:64-i64:64-i128:128-f80:128-n8:16:32:64-S128"
target triple = "x86_64-pc-linux-gnu"

%struct.quicklist = type { ptr, ptr, i64, i64, i64, [0 x %struct.quicklistBookmark] }
%struct.quicklistBookmark = type { ptr, ptr }

; Function Attrs: nounwind uwtable
define dso_local i32 @quicklistPop(ptr noundef %0, i32 noundef %1, ptr noundef %2, ptr noundef %3, ptr noundef %4) #0 {
  %6 = alloca i32, align 4
  %7 = alloca ptr, align 8
  %8 = alloca i32, align 4
  %9 = alloca ptr, align 8
  %10 = alloca ptr, align 8
  %11 = alloca ptr, align 8
  %12 = alloca ptr, align 8
  %13 = alloca i64, align 8
  %14 = alloca i64, align 8
  %15 = alloca i32, align 4
  %16 = alloca i32, align 4
  store ptr %0, ptr %7, align 8, !tbaa !9
  store i32 %1, ptr %8, align 4, !tbaa !14
  store ptr %2, ptr %9, align 8, !tbaa !40
  store ptr %3, ptr %10, align 8, !tbaa !31
  store ptr %4, ptr %11, align 8, !tbaa !65
  call void @llvm.lifetime.start.p0(i64 8, ptr %12) #10
  store ptr null, ptr %12, align 8, !tbaa !35
  call void @llvm.lifetime.start.p0(i64 8, ptr %13) #10
  store i64 0, ptr %13, align 8, !tbaa !5
  call void @llvm.lifetime.start.p0(i64 8, ptr %14) #10
  store i64 0, ptr %14, align 8, !tbaa !57
  %17 = load ptr, ptr %7, align 8, !tbaa !9
  %18 = getelementptr inbounds nuw %struct.quicklist, ptr %17, i32 0, i32 2
  %19 = load i64, ptr %18, align 8, !tbaa !5
  %20 = icmp eq i64 %19, 0
  br i1 %20, label %21, label %22

21:                                               ; preds = %5
  store i32 0, ptr %6, align 4
  store i32 1, ptr %15, align 4
  br label %45

22:                                               ; preds = %5
  call void @llvm.lifetime.start.p0(i64 4, ptr %16) #10
  %23 = load ptr, ptr %7, align 8, !tbaa !9
  %24 = load i32, ptr %8, align 4, !tbaa !14
  %25 = call i32 @quicklistPopCustom(ptr noundef %23, i32 noundef %24, ptr noundef %12, ptr noundef %13, ptr noundef %14, ptr noundef @_quicklistSaver)
  store i32 %25, ptr %16, align 4, !tbaa !14
  %26 = load ptr, ptr %9, align 8, !tbaa !40
  %27 = icmp ne ptr %26, null
  br i1 %27, label %28, label %31

28:                                               ; preds = %22
  %29 = load ptr, ptr %12, align 8, !tbaa !35
  %30 = load ptr, ptr %9, align 8, !tbaa !40
  store ptr %29, ptr %30, align 8, !tbaa !35
  br label %31

31:                                               ; preds = %28, %22
  %32 = load ptr, ptr %11, align 8, !tbaa !65
  %33 = icmp ne ptr %32, null
  br i1 %33, label %34, label %37

34:                                               ; preds = %31
  %35 = load i64, ptr %14, align 8, !tbaa !57
  %36 = load ptr, ptr %11, align 8, !tbaa !65
  store i64 %35, ptr %36, align 8, !tbaa !57
  br label %37

37:                                               ; preds = %34, %31
  %38 = load ptr, ptr %10, align 8, !tbaa !31
  %39 = icmp ne ptr %38, null
  br i1 %39, label %40, label %43

40:                                               ; preds = %37
  %41 = load i64, ptr %13, align 8, !tbaa !5
  %42 = load ptr, ptr %10, align 8, !tbaa !31
  store i64 %41, ptr %42, align 8, !tbaa !5
  br label %43

43:                                               ; preds = %40, %37
  %44 = load i32, ptr %16, align 4, !tbaa !14
  store i32 %44, ptr %6, align 4
  store i32 1, ptr %15, align 4
  call void @llvm.lifetime.end.p0(i64 4, ptr %16) #10
  br label %45

45:                                               ; preds = %43, %21
  call void @llvm.lifetime.end.p0(i64 8, ptr %14) #10
  call void @llvm.lifetime.end.p0(i64 8, ptr %13) #10
  call void @llvm.lifetime.end.p0(i64 8, ptr %12) #10
  %46 = load i32, ptr %6, align 4
  ret i32 %46
}