; Function Attrs: nounwind uwtable
define dso_local range(i32 0, 2) i32 @quicklistPop(ptr noundef %0, i32 noundef %1, ptr noundef writeonly captures(address_is_null) %2, ptr noundef writeonly captures(address_is_null) %3, ptr noundef writeonly captures(address_is_null) %4) local_unnamed_addr #1 {
  %6 = alloca ptr, align 8
  %7 = alloca i64, align 8
  %8 = alloca i64, align 8
  call void @llvm.lifetime.start.p0(i64 8, ptr nonnull %6) #23
  store ptr null, ptr %6, align 8, !tbaa !32
  call void @llvm.lifetime.start.p0(i64 8, ptr nonnull %7) #23
  store i64 0, ptr %7, align 8, !tbaa !5
  call void @llvm.lifetime.start.p0(i64 8, ptr nonnull %8) #23
  store i64 0, ptr %8, align 8, !tbaa !53
  %9 = getelementptr inbounds nuw i8, ptr %0, i64 16
  %10 = load i64, ptr %9, align 8, !tbaa !5
  %11 = icmp eq i64 %10, 0
  br i1 %11, label %22, label %12

12:                                               ; preds = %5
  %13 = call i32 @quicklistPopCustom(ptr noundef nonnull %0, i32 noundef %1, ptr noundef nonnull %6, ptr noundef nonnull %7, ptr noundef nonnull %8, ptr noundef nonnull @_quicklistSaver)
  %.not = icmp eq ptr %2, null
  br i1 %.not, label %16, label %14

14:                                               ; preds = %12
  %15 = load ptr, ptr %6, align 8, !tbaa !32
  store ptr %15, ptr %2, align 8, !tbaa !32
  br label %16

16:                                               ; preds = %14, %12
  %.not13 = icmp eq ptr %4, null
  br i1 %.not13, label %19, label %17

17:                                               ; preds = %16
  %18 = load i64, ptr %8, align 8, !tbaa !53
  store i64 %18, ptr %4, align 8, !tbaa !53
  br label %19

19:                                               ; preds = %17, %16
  %.not14 = icmp eq ptr %3, null
  br i1 %.not14, label %22, label %20

20:                                               ; preds = %19
  %21 = load i64, ptr %7, align 8, !tbaa !5
  store i64 %21, ptr %3, align 8, !tbaa !5
  br label %22

22:                                               ; preds = %19, %20, %5
  %.0 = phi i32 [ 0, %5 ], [ %13, %20 ], [ %13, %19 ]
  call void @llvm.lifetime.end.p0(i64 8, ptr nonnull %8) #23
  call void @llvm.lifetime.end.p0(i64 8, ptr nonnull %7) #23
  call void @llvm.lifetime.end.p0(i64 8, ptr nonnull %6) #23
  ret i32 %.0
}